target datalayout = "e-m:e-p270:32:32-p271:32:32-p272:64:64-i64:64-i128:128-f80:128-n8:16:32:64-S128"
target triple = "x86_64-pc-linux-gnu"

%"class.llvm::MDBuilder" = type { ptr }
%"class.llvm::ArrayRef" = type { ptr, i64 }
%"class.std::initializer_list.11" = type { ptr, i64 }

; Function Attrs: mustprogress nounwind uwtable
define linkonce_odr hidden noundef ptr @_ZN4llvm16cast_convert_valINS_18ConstantAsMetadataEPNS_15ValueAsMetadataES3_E4doitEPKS2_(ptr noundef %0) #0 comdat align 2 {
  %2 = alloca ptr, align 8
  store ptr %0, ptr %2, align 8
  %3 = load ptr, ptr %2, align 8
  ret ptr %3
}

; Function Attrs: mustprogress nounwind uwtable
define linkonce_odr hidden noundef ptr @_ZN4llvm8CastInfoINS_18ConstantAsMetadataEPNS_15ValueAsMetadataEvE6doCastERKS3_(ptr noundef nonnull align 8 dereferenceable(8) %0) #0 comdat align 2 {
  %2 = alloca ptr, align 8
  store ptr %0, ptr %2, align 8
  %3 = load ptr, ptr %2, align 8
  %4 = load ptr, ptr %3, align 8
  %5 = call noundef ptr @_ZN4llvm16cast_convert_valINS_18ConstantAsMetadataEPNS_15ValueAsMetadataES3_E4doitEPKS2_(ptr noundef %4)
  ret ptr %5
}

; Function Attrs: mustprogress nounwind uwtable
define linkonce_odr hidden noundef ptr @_ZN4llvm4castINS_18ConstantAsMetadataENS_15ValueAsMetadataEEEDcPT0_(ptr noundef %0) #0 comdat {
  %2 = alloca ptr, align 8
  store ptr %0, ptr %2, align 8
  %3 = call noundef ptr @_ZN4llvm8CastInfoINS_18ConstantAsMetadataEPNS_15ValueAsMetadataEvE6doCastERKS3_(ptr noundef nonnull align 8 dereferenceable(8) %2)
  ret ptr %3
}

; Function Attrs: mustprogress nounwind uwtable
define linkonce_odr hidden noundef ptr @_ZN4llvm15ValueAsMetadata11getConstantEPNS_5ValueE(ptr noundef %0) #0 comdat align 2 {
  %2 = alloca ptr, align 8
  store ptr %0, ptr %2, align 8
  %3 = load ptr, ptr %2, align 8
  %4 = call noundef ptr @_ZN4llvm15ValueAsMetadata3getEPNS_5ValueE(ptr noundef %3)
  %5 = call noundef ptr @_ZN4llvm4castINS_18ConstantAsMetadataENS_15ValueAsMetadataEEEDcPT0_(ptr noundef %4)
  ret ptr %5
}

; Function Attrs: mustprogress nounwind uwtable
define linkonce_odr hidden noundef ptr @_ZN4llvm7MDTuple3getERNS_11LLVMContextENS_8ArrayRefIPNS_8MetadataEEE(ptr noundef nonnull align 8 dereferenceable(8) %0, ptr %1, i64 %2) #0 comdat align 2 {
  %4 = alloca %"class.llvm::ArrayRef", align 8
  %5 = alloca ptr, align 8
  %6 = alloca %"class.llvm::ArrayRef", align 8
  %7 = getelementptr inbounds nuw { ptr, i64 }, ptr %4, i32 0, i32 0
  store ptr %1, ptr %7, align 8
  %8 = getelementptr inbounds nuw { ptr, i64 }, ptr %4, i32 0, i32 1
  store i64 %2, ptr %8, align 8
  store ptr %0, ptr %5, align 8
  %9 = load ptr, ptr %5, align 8
  call void @llvm.memcpy.p0.p0.i64(ptr align 8 %6, ptr align 8 %4, i64 16, i1 false)
  %10 = getelementptr inbounds nuw { ptr, i64 }, ptr %6, i32 0, i32 0
  %11 = load ptr, ptr %10, align 8
  %12 = getelementptr inbounds nuw { ptr, i64 }, ptr %6, i32 0, i32 1
  %13 = load i64, ptr %12, align 8
  %14 = call noundef ptr @_ZN4llvm7MDTuple7getImplERNS_11LLVMContextENS_8ArrayRefIPNS_8MetadataEEENS4_11StorageTypeEb(ptr noundef nonnull align 8 dereferenceable(8) %9, ptr %11, i64 %13, i32 noundef 0, i1 noundef zeroext true)
  ret ptr %14
}

; Function Attrs: mustprogress nounwind uwtable
define linkonce_odr hidden noundef i64 @_ZNKSt16initializer_listIPN4llvm8MetadataEE4sizeEv(ptr noundef nonnull align 8 dereferenceable(16) %0) #0 comdat align 2 {
  %2 = alloca ptr, align 8
  store ptr %0, ptr %2, align 8
  %3 = load ptr, ptr %2, align 8
  %4 = getelementptr inbounds nuw %"class.std::initializer_list.11", ptr %3, i32 0, i32 1
  %5 = load i64, ptr %4, align 8
  ret i64 %5
}

; Function Attrs: mustprogress nounwind uwtable
define linkonce_odr hidden noundef ptr @_ZNKSt16initializer_listIPN4llvm8MetadataEE3endEv(ptr noundef nonnull align 8 dereferenceable(16) %0) #0 comdat align 2 {
  %2 = alloca ptr, align 8
  store ptr %0, ptr %2, align 8
  %3 = load ptr, ptr %2, align 8
  %4 = call noundef ptr @_ZNKSt16initializer_listIPN4llvm8MetadataEE5beginEv(ptr noundef nonnull align 8 dereferenceable(16) %3) #5
  %5 = call noundef i64 @_ZNKSt16initializer_listIPN4llvm8MetadataEE4sizeEv(ptr noundef nonnull align 8 dereferenceable(16) %3) #5
  %6 = getelementptr inbounds ptr, ptr %4, i64 %5
  ret ptr %6
}

; Function Attrs: mustprogress nounwind uwtable
define linkonce_odr hidden noundef ptr @_ZNKSt16initializer_listIPN4llvm8MetadataEE5beginEv(ptr noundef nonnull align 8 dereferenceable(16) %0) #0 comdat align 2 {
  %2 = alloca ptr, align 8
  store ptr %0, ptr %2, align 8
  %3 = load ptr, ptr %2, align 8
  %4 = getelementptr inbounds nuw %"class.std::initializer_list.11", ptr %3, i32 0, i32 0
  %5 = load ptr, ptr %4, align 8
  ret ptr %5
}

; Function Attrs: mustprogress nounwind uwtable
define linkonce_odr hidden noundef ptr @_ZN4llvm18ConstantAsMetadata3getEPNS_8ConstantE(ptr noundef %0) #0 comdat align 2 {
  %2 = alloca ptr, align 8
  store ptr %0, ptr %2, align 8
  %3 = load ptr, ptr %2, align 8
  %4 = call noundef ptr @_ZN4llvm15ValueAsMetadata11getConstantEPNS_5ValueE(ptr noundef %3)
  ret ptr %4
}

; Function Attrs: mustprogress nounwind uwtable
define linkonce_odr hidden noundef ptr @_ZN4llvm6MDNode3getERNS_11LLVMContextENS_8ArrayRefIPNS_8MetadataEEE(ptr noundef nonnull align 8 dereferenceable(8) %0, ptr %1, i64 %2) #0 comdat align 2 {
  %4 = alloca %"class.llvm::ArrayRef", align 8
  %5 = alloca ptr, align 8
  %6 = alloca %"class.llvm::ArrayRef", align 8
  %7 = getelementptr inbounds nuw { ptr, i64 }, ptr %4, i32 0, i32 0
  store ptr %1, ptr %7, align 8
  %8 = getelementptr inbounds nuw { ptr, i64 }, ptr %4, i32 0, i32 1
  store i64 %2, ptr %8, align 8
  store ptr %0, ptr %5, align 8
  %9 = load ptr, ptr %5, align 8
  call void @llvm.memcpy.p0.p0.i64(ptr align 8 %6, ptr align 8 %4, i64 16, i1 false)
  %10 = getelementptr inbounds nuw { ptr, i64 }, ptr %6, i32 0, i32 0
  %11 = load ptr, ptr %10, align 8
  %12 = getelementptr inbounds nuw { ptr, i64 }, ptr %6, i32 0, i32 1
  %13 = load i64, ptr %12, align 8
  %14 = call noundef ptr @_ZN4llvm7MDTuple3getERNS_11LLVMContextENS_8ArrayRefIPNS_8MetadataEEE(ptr noundef nonnull align 8 dereferenceable(8) %9, ptr %11, i64 %13)
  ret ptr %14
}

; Function Attrs: mustprogress nounwind uwtable
define linkonce_odr hidden void @_ZN4llvm8ArrayRefIPNS_8MetadataEEC2ERKSt16initializer_listIS2_E(ptr noundef nonnull align 8 dereferenceable(16) %0, ptr noundef nonnull align 8 dereferenceable(16) %1) unnamed_addr #0 comdat align 2 {
  %3 = alloca ptr, align 8
  %4 = alloca ptr, align 8
  store ptr %0, ptr %3, align 8
  store ptr %1, ptr %4, align 8
  %5 = load ptr, ptr %3, align 8
  %6 = getelementptr inbounds nuw %"class.llvm::ArrayRef", ptr %5, i32 0, i32 0
  %7 = load ptr, ptr %4, align 8
  %8 = call noundef ptr @_ZNKSt16initializer_listIPN4llvm8MetadataEE5beginEv(ptr noundef nonnull align 8 dereferenceable(16) %7) #5
  %9 = load ptr, ptr %4, align 8
  %10 = call noundef ptr @_ZNKSt16initializer_listIPN4llvm8MetadataEE3endEv(ptr noundef nonnull align 8 dereferenceable(16) %9) #5
  %11 = icmp eq ptr %8, %10
  br i1 %11, label %12, label %13

12:                                               ; preds = %2
  br label %16

13:                                               ; preds = %2
  %14 = load ptr, ptr %4, align 8
  %15 = call noundef ptr @_ZNKSt16initializer_listIPN4llvm8MetadataEE5beginEv(ptr noundef nonnull align 8 dereferenceable(16) %14) #5
  br label %16

16:                                               ; preds = %13, %12
  %17 = phi ptr [ null, %12 ], [ %15, %13 ]
  store ptr %17, ptr %6, align 8
  %18 = getelementptr inbounds nuw %"class.llvm::ArrayRef", ptr %5, i32 0, i32 1
  %19 = load ptr, ptr %4, align 8
  %20 = call noundef i64 @_ZNKSt16initializer_listIPN4llvm8MetadataEE4sizeEv(ptr noundef nonnull align 8 dereferenceable(16) %19) #5
  store i64 %20, ptr %18, align 8
  ret void
}

; Function Attrs: mustprogress nounwind uwtable
define dso_local noundef ptr @_ZN4llvm9MDBuilder14createConstantEPNS_8ConstantE(ptr noundef nonnull align 8 dereferenceable(8) %0, ptr noundef %1) #0 align 2 {
  %3 = alloca ptr, align 8
  %4 = alloca ptr, align 8
  store ptr %0, ptr %3, align 8
  store ptr %1, ptr %4, align 8
  %5 = load ptr, ptr %4, align 8
  %6 = call noundef ptr @_ZN4llvm18ConstantAsMetadata3getEPNS_8ConstantE(ptr noundef %5)
  ret ptr %6
}

; Function Attrs: mustprogress nounwind uwtable
define dso_local noundef ptr @_ZN4llvm9MDBuilder11createRangeEPNS_8ConstantES2_(ptr noundef nonnull align 8 dereferenceable(8) %0, ptr noundef %1, ptr noundef %2) #0 align 2 {
  %4 = alloca ptr, align 8
  %5 = alloca ptr, align 8
  %6 = alloca ptr, align 8
  %7 = alloca ptr, align 8
  %8 = alloca %"class.llvm::ArrayRef", align 8
  %9 = alloca %"class.std::initializer_list.11", align 8
  %10 = alloca [2 x ptr], align 8
  store ptr %0, ptr %5, align 8
  store ptr %1, ptr %6, align 8
  store ptr %2, ptr %7, align 8
  %11 = load ptr, ptr %5, align 8
  %12 = load ptr, ptr %7, align 8
  %13 = load ptr, ptr %6, align 8
  %14 = icmp eq ptr %12, %13
  br i1 %14, label %15, label %16

15:                                               ; preds = %3
  store ptr null, ptr %4, align 8
  br label %31

16:                                               ; preds = %3
  %17 = getelementptr inbounds nuw %"class.llvm::MDBuilder", ptr %11, i32 0, i32 0
  %18 = load ptr, ptr %17, align 8
  %19 = load ptr, ptr %6, align 8
  %20 = call noundef ptr @_ZN4llvm9MDBuilder14createConstantEPNS_8ConstantE(ptr noundef nonnull align 8 dereferenceable(8) %11, ptr noundef %19)
  store ptr %20, ptr %10, align 8
  %21 = getelementptr inbounds ptr, ptr %10, i64 1
  %22 = load ptr, ptr %7, align 8
  %23 = call noundef ptr @_ZN4llvm9MDBuilder14createConstantEPNS_8ConstantE(ptr noundef nonnull align 8 dereferenceable(8) %11, ptr noundef %22)
  store ptr %23, ptr %21, align 8
  %24 = getelementptr inbounds nuw %"class.std::initializer_list.11", ptr %9, i32 0, i32 0
  store ptr %10, ptr %24, align 8
  %25 = getelementptr inbounds nuw %"class.std::initializer_list.11", ptr %9, i32 0, i32 1
  store i64 2, ptr %25, align 8
  call void @_ZN4llvm8ArrayRefIPNS_8MetadataEEC2ERKSt16initializer_listIS2_E(ptr noundef nonnull align 8 dereferenceable(16) %8, ptr noundef nonnull align 8 dereferenceable(16) %9)
  %26 = getelementptr inbounds nuw { ptr, i64 }, ptr %8, i32 0, i32 0
  %27 = load ptr, ptr %26, align 8
  %28 = getelementptr inbounds nuw { ptr, i64 }, ptr %8, i32 0, i32 1
  %29 = load i64, ptr %28, align 8
  %30 = call noundef ptr @_ZN4llvm6MDNode3getERNS_11LLVMContextENS_8ArrayRefIPNS_8MetadataEEE(ptr noundef nonnull align 8 dereferenceable(8) %18, ptr %27, i64 %29)
  store ptr %30, ptr %4, align 8
  br label %31

31:                                               ; preds = %16, %15
  %32 = load ptr, ptr %4, align 8
  ret ptr %32
}