; Function Attrs: mustprogress nounwind uwtable
define dso_local noundef ptr @_ZN4llvm9MDBuilder11createRangeEPNS_8ConstantES2_(ptr nocapture noundef nonnull readonly align 8 dereferenceable(8) %0, ptr noundef %1, ptr noundef %2) local_unnamed_addr #0 align 2 {
  %4 = alloca [2 x ptr], align 8
  %5 = icmp eq ptr %2, %1
  br i1 %5, label %12, label %6

6:                                                ; preds = %3
  %7 = load ptr, ptr %0, align 8
  %8 = tail call noundef ptr @_ZN4llvm15ValueAsMetadata3getEPNS_5ValueE(ptr noundef %1) #8
  store ptr %8, ptr %4, align 8
  %9 = getelementptr inbounds i8, ptr %4, i64 8
  %10 = tail call noundef ptr @_ZN4llvm15ValueAsMetadata3getEPNS_5ValueE(ptr noundef %2) #8
  store ptr %10, ptr %9, align 8
  %11 = call noundef ptr @_ZN4llvm7MDTuple7getImplERNS_11LLVMContextENS_8ArrayRefIPNS_8MetadataEEENS4_11StorageTypeEb(ptr noundef nonnull align 8 dereferenceable(8) %7, ptr nonnull %4, i64 2, i32 noundef 0, i1 noundef zeroext true) #8
  br label %12

12:                                               ; preds = %3, %6
  %.0 = phi ptr [ %11, %6 ], [ null, %3 ]
  ret ptr %.0
}